target datalayout = "e-m:e-p270:32:32-p271:32:32-p272:64:64-i64:64-i128:128-f80:128-n8:16:32:64-S128"
target triple = "x86_64-pc-linux-gnu"

%struct.uat_esp_sa_record_t = type { i8, ptr, ptr, ptr, i8, ptr, ptr, i32, i8, ptr, i8, ptr, ptr, i32, i8, i32 }

; Function Attrs: null_pointer_is_valid sspstrong uwtable
define internal zeroext i1 @uat_esp_sa_record_update_cb(ptr noundef %0, ptr noundef %1) #0 {
  %3 = alloca ptr, align 8
  %4 = alloca ptr, align 8
  %5 = alloca ptr, align 8
  store ptr %0, ptr %3, align 8
  store ptr %1, ptr %4, align 8
  call void @llvm.lifetime.start.p0(i64 8, ptr %5) #17
  %6 = load ptr, ptr %3, align 8
  store ptr %6, ptr %5, align 8
  %7 = load ptr, ptr %5, align 8
  %8 = getelementptr inbounds nuw %struct.uat_esp_sa_record_t, ptr %7, i32 0, i32 6
  %9 = load ptr, ptr %8, align 8
  call void @g_free(ptr noundef %9)
  %10 = load ptr, ptr %5, align 8
  %11 = getelementptr inbounds nuw %struct.uat_esp_sa_record_t, ptr %10, i32 0, i32 8
  %12 = load i8, ptr %11, align 4, !range !6, !noundef !7
  %13 = trunc i8 %12 to i1
  br i1 %13, label %14, label %20

14:                                               ; preds = %2
  %15 = load ptr, ptr %5, align 8
  %16 = getelementptr inbounds nuw %struct.uat_esp_sa_record_t, ptr %15, i32 0, i32 9
  %17 = load ptr, ptr %16, align 8
  call void @gcry_cipher_close(ptr noundef %17)
  %18 = load ptr, ptr %5, align 8
  %19 = getelementptr inbounds nuw %struct.uat_esp_sa_record_t, ptr %18, i32 0, i32 8
  store i8 0, ptr %19, align 4
  br label %20

20:                                               ; preds = %14, %2
  %21 = load ptr, ptr %5, align 8
  %22 = getelementptr inbounds nuw %struct.uat_esp_sa_record_t, ptr %21, i32 0, i32 5
  %23 = load ptr, ptr %22, align 8
  %24 = icmp ne ptr %23, null
  br i1 %24, label %25, label %35

25:                                               ; preds = %20
  %26 = load ptr, ptr %5, align 8
  %27 = getelementptr inbounds nuw %struct.uat_esp_sa_record_t, ptr %26, i32 0, i32 6
  %28 = load ptr, ptr %5, align 8
  %29 = getelementptr inbounds nuw %struct.uat_esp_sa_record_t, ptr %28, i32 0, i32 5
  %30 = load ptr, ptr %29, align 8
  %31 = load ptr, ptr %4, align 8
  %32 = call i32 @compute_ascii_key(ptr noundef %27, ptr noundef %30, ptr noundef %31)
  %33 = load ptr, ptr %5, align 8
  %34 = getelementptr inbounds nuw %struct.uat_esp_sa_record_t, ptr %33, i32 0, i32 7
  store i32 %32, ptr %34, align 8
  br label %40

35:                                               ; preds = %20
  %36 = load ptr, ptr %5, align 8
  %37 = getelementptr inbounds nuw %struct.uat_esp_sa_record_t, ptr %36, i32 0, i32 7
  store i32 0, ptr %37, align 8
  %38 = load ptr, ptr %5, align 8
  %39 = getelementptr inbounds nuw %struct.uat_esp_sa_record_t, ptr %38, i32 0, i32 6
  store ptr null, ptr %39, align 8
  br label %40

40:                                               ; preds = %35, %25
  %41 = load ptr, ptr %5, align 8
  %42 = getelementptr inbounds nuw %struct.uat_esp_sa_record_t, ptr %41, i32 0, i32 12
  %43 = load ptr, ptr %42, align 8
  call void @g_free(ptr noundef %43)
  %44 = load ptr, ptr %5, align 8
  %45 = getelementptr inbounds nuw %struct.uat_esp_sa_record_t, ptr %44, i32 0, i32 11
  %46 = load ptr, ptr %45, align 8
  %47 = icmp ne ptr %46, null
  br i1 %47, label %48, label %58

48:                                               ; preds = %40
  %49 = load ptr, ptr %5, align 8
  %50 = getelementptr inbounds nuw %struct.uat_esp_sa_record_t, ptr %49, i32 0, i32 12
  %51 = load ptr, ptr %5, align 8
  %52 = getelementptr inbounds nuw %struct.uat_esp_sa_record_t, ptr %51, i32 0, i32 11
  %53 = load ptr, ptr %52, align 8
  %54 = load ptr, ptr %4, align 8
  %55 = call i32 @compute_ascii_key(ptr noundef %50, ptr noundef %53, ptr noundef %54)
  %56 = load ptr, ptr %5, align 8
  %57 = getelementptr inbounds nuw %struct.uat_esp_sa_record_t, ptr %56, i32 0, i32 13
  store i32 %55, ptr %57, align 8
  br label %63

58:                                               ; preds = %40
  %59 = load ptr, ptr %5, align 8
  %60 = getelementptr inbounds nuw %struct.uat_esp_sa_record_t, ptr %59, i32 0, i32 13
  store i32 0, ptr %60, align 8
  %61 = load ptr, ptr %5, align 8
  %62 = getelementptr inbounds nuw %struct.uat_esp_sa_record_t, ptr %61, i32 0, i32 12
  store ptr null, ptr %62, align 8
  br label %63

63:                                               ; preds = %58, %48
  %64 = load ptr, ptr %4, align 8
  %65 = load ptr, ptr %64, align 8
  %66 = icmp eq ptr %65, null
  call void @llvm.lifetime.end.p0(i64 8, ptr %5) #17
  ret i1 %66
}

; Function Attrs: null_pointer_is_valid sspstrong uwtable
define internal ptr @uat_esp_sa_record_copy_cb(ptr noundef %0, ptr noundef %1, i64 noundef %2) #0 {
  %4 = alloca ptr, align 8
  %5 = alloca ptr, align 8
  %6 = alloca i64, align 8
  %7 = alloca ptr, align 8
  %8 = alloca ptr, align 8
  %9 = alloca ptr, align 8
  store ptr %0, ptr %4, align 8
  store ptr %1, ptr %5, align 8
  store i64 %2, ptr %6, align 8
  call void @llvm.lifetime.start.p0(i64 8, ptr %7) #17
  %10 = load ptr, ptr %4, align 8
  store ptr %10, ptr %7, align 8
  call void @llvm.lifetime.start.p0(i64 8, ptr %8) #17
  %11 = load ptr, ptr %5, align 8
  store ptr %11, ptr %8, align 8
  %12 = load ptr, ptr %8, align 8
  %13 = getelementptr inbounds nuw %struct.uat_esp_sa_record_t, ptr %12, i32 0, i32 0
  %14 = load i8, ptr %13, align 8
  %15 = load ptr, ptr %7, align 8
  %16 = getelementptr inbounds nuw %struct.uat_esp_sa_record_t, ptr %15, i32 0, i32 0
  store i8 %14, ptr %16, align 8
  %17 = load ptr, ptr %8, align 8
  %18 = getelementptr inbounds nuw %struct.uat_esp_sa_record_t, ptr %17, i32 0, i32 1
  %19 = load ptr, ptr %18, align 8
  %20 = call noalias ptr @g_strdup(ptr noundef %19)
  %21 = load ptr, ptr %7, align 8
  %22 = getelementptr inbounds nuw %struct.uat_esp_sa_record_t, ptr %21, i32 0, i32 1
  store ptr %20, ptr %22, align 8
  %23 = load ptr, ptr %8, align 8
  %24 = getelementptr inbounds nuw %struct.uat_esp_sa_record_t, ptr %23, i32 0, i32 2
  %25 = load ptr, ptr %24, align 8
  %26 = call noalias ptr @g_strdup(ptr noundef %25)
  %27 = load ptr, ptr %7, align 8
  %28 = getelementptr inbounds nuw %struct.uat_esp_sa_record_t, ptr %27, i32 0, i32 2
  store ptr %26, ptr %28, align 8
  %29 = load ptr, ptr %8, align 8
  %30 = getelementptr inbounds nuw %struct.uat_esp_sa_record_t, ptr %29, i32 0, i32 3
  %31 = load ptr, ptr %30, align 8
  %32 = call noalias ptr @g_strdup(ptr noundef %31)
  %33 = load ptr, ptr %7, align 8
  %34 = getelementptr inbounds nuw %struct.uat_esp_sa_record_t, ptr %33, i32 0, i32 3
  store ptr %32, ptr %34, align 8
  %35 = load ptr, ptr %8, align 8
  %36 = getelementptr inbounds nuw %struct.uat_esp_sa_record_t, ptr %35, i32 0, i32 4
  %37 = load i8, ptr %36, align 8
  %38 = load ptr, ptr %7, align 8
  %39 = getelementptr inbounds nuw %struct.uat_esp_sa_record_t, ptr %38, i32 0, i32 4
  store i8 %37, ptr %39, align 8
  %40 = load ptr, ptr %8, align 8
  %41 = getelementptr inbounds nuw %struct.uat_esp_sa_record_t, ptr %40, i32 0, i32 5
  %42 = load ptr, ptr %41, align 8
  %43 = call noalias ptr @g_strdup(ptr noundef %42)
  %44 = load ptr, ptr %7, align 8
  %45 = getelementptr inbounds nuw %struct.uat_esp_sa_record_t, ptr %44, i32 0, i32 5
  store ptr %43, ptr %45, align 8
  %46 = load ptr, ptr %7, align 8
  %47 = getelementptr inbounds nuw %struct.uat_esp_sa_record_t, ptr %46, i32 0, i32 6
  store ptr null, ptr %47, align 8
  %48 = load ptr, ptr %7, align 8
  %49 = getelementptr inbounds nuw %struct.uat_esp_sa_record_t, ptr %48, i32 0, i32 8
  store i8 0, ptr %49, align 4
  %50 = load ptr, ptr %8, align 8
  %51 = getelementptr inbounds nuw %struct.uat_esp_sa_record_t, ptr %50, i32 0, i32 10
  %52 = load i8, ptr %51, align 8
  %53 = load ptr, ptr %7, align 8
  %54 = getelementptr inbounds nuw %struct.uat_esp_sa_record_t, ptr %53, i32 0, i32 10
  store i8 %52, ptr %54, align 8
  %55 = load ptr, ptr %8, align 8
  %56 = getelementptr inbounds nuw %struct.uat_esp_sa_record_t, ptr %55, i32 0, i32 11
  %57 = load ptr, ptr %56, align 8
  %58 = call noalias ptr @g_strdup(ptr noundef %57)
  %59 = load ptr, ptr %7, align 8
  %60 = getelementptr inbounds nuw %struct.uat_esp_sa_record_t, ptr %59, i32 0, i32 11
  store ptr %58, ptr %60, align 8
  %61 = load ptr, ptr %7, align 8
  %62 = getelementptr inbounds nuw %struct.uat_esp_sa_record_t, ptr %61, i32 0, i32 12
  store ptr null, ptr %62, align 8
  %63 = load ptr, ptr %8, align 8
  %64 = getelementptr inbounds nuw %struct.uat_esp_sa_record_t, ptr %63, i32 0, i32 14
  %65 = load i8, ptr %64, align 4
  %66 = load ptr, ptr %7, align 8
  %67 = getelementptr inbounds nuw %struct.uat_esp_sa_record_t, ptr %66, i32 0, i32 14
  store i8 %65, ptr %67, align 4
  %68 = load ptr, ptr %8, align 8
  %69 = getelementptr inbounds nuw %struct.uat_esp_sa_record_t, ptr %68, i32 0, i32 15
  %70 = load i32, ptr %69, align 8
  %71 = load ptr, ptr %7, align 8
  %72 = getelementptr inbounds nuw %struct.uat_esp_sa_record_t, ptr %71, i32 0, i32 15
  store i32 %70, ptr %72, align 8
  call void @llvm.lifetime.start.p0(i64 8, ptr %9) #17
  store ptr null, ptr %9, align 8
  %73 = load ptr, ptr %7, align 8
  %74 = call zeroext i1 @uat_esp_sa_record_update_cb(ptr noundef %73, ptr noundef %9)
  %75 = load ptr, ptr %9, align 8
  %76 = icmp ne ptr %75, null
  br i1 %76, label %77, label %79

77:                                               ; preds = %3
  %78 = load ptr, ptr %9, align 8
  call void @g_free(ptr noundef %78)
  br label %79

79:                                               ; preds = %77, %3
  %80 = load ptr, ptr %7, align 8
  call void @llvm.lifetime.end.p0(i64 8, ptr %9) #17
  call void @llvm.lifetime.end.p0(i64 8, ptr %8) #17
  call void @llvm.lifetime.end.p0(i64 8, ptr %7) #17
  ret ptr %80
}