; Function Attrs: null_pointer_is_valid sspstrong uwtable
define internal noundef ptr @uat_esp_sa_record_copy_cb(ptr noundef returned captures(ret: address, provenance) initializes((0, 1), (8, 33), (40, 56), (60, 61), (72, 73), (80, 96), (100, 101), (104, 108)) %0, ptr noundef readonly captures(none) %1, i64 %2) #0 {
  %4 = alloca ptr, align 8
  %5 = load i8, ptr %1, align 8
  store i8 %5, ptr %0, align 8
  %6 = getelementptr inbounds nuw i8, ptr %1, i64 8
  %7 = load ptr, ptr %6, align 8
  %8 = tail call noalias ptr @g_strdup(ptr noundef %7)
  %9 = getelementptr inbounds nuw i8, ptr %0, i64 8
  store ptr %8, ptr %9, align 8
  %10 = getelementptr inbounds nuw i8, ptr %1, i64 16
  %11 = load ptr, ptr %10, align 8
  %12 = tail call noalias ptr @g_strdup(ptr noundef %11)
  %13 = getelementptr inbounds nuw i8, ptr %0, i64 16
  store ptr %12, ptr %13, align 8
  %14 = getelementptr inbounds nuw i8, ptr %1, i64 24
  %15 = load ptr, ptr %14, align 8
  %16 = tail call noalias ptr @g_strdup(ptr noundef %15)
  %17 = getelementptr inbounds nuw i8, ptr %0, i64 24
  store ptr %16, ptr %17, align 8
  %18 = getelementptr inbounds nuw i8, ptr %1, i64 32
  %19 = load i8, ptr %18, align 8
  %20 = getelementptr inbounds nuw i8, ptr %0, i64 32
  store i8 %19, ptr %20, align 8
  %21 = getelementptr inbounds nuw i8, ptr %1, i64 40
  %22 = load ptr, ptr %21, align 8
  %23 = tail call noalias ptr @g_strdup(ptr noundef %22)
  %24 = getelementptr inbounds nuw i8, ptr %0, i64 40
  store ptr %23, ptr %24, align 8
  %25 = getelementptr inbounds nuw i8, ptr %0, i64 48
  store ptr null, ptr %25, align 8
  %26 = getelementptr inbounds nuw i8, ptr %0, i64 60
  store i8 0, ptr %26, align 4
  %27 = getelementptr inbounds nuw i8, ptr %1, i64 72
  %28 = load i8, ptr %27, align 8
  %29 = getelementptr inbounds nuw i8, ptr %0, i64 72
  store i8 %28, ptr %29, align 8
  %30 = getelementptr inbounds nuw i8, ptr %1, i64 80
  %31 = load ptr, ptr %30, align 8
  %32 = tail call noalias ptr @g_strdup(ptr noundef %31)
  %33 = getelementptr inbounds nuw i8, ptr %0, i64 80
  store ptr %32, ptr %33, align 8
  %34 = getelementptr inbounds nuw i8, ptr %0, i64 88
  store ptr null, ptr %34, align 8
  %35 = getelementptr inbounds nuw i8, ptr %1, i64 100
  %36 = load i8, ptr %35, align 4
  %37 = getelementptr inbounds nuw i8, ptr %0, i64 100
  store i8 %36, ptr %37, align 4
  %38 = getelementptr inbounds nuw i8, ptr %1, i64 104
  %39 = load i32, ptr %38, align 8
  %40 = getelementptr inbounds nuw i8, ptr %0, i64 104
  store i32 %39, ptr %40, align 8
  call void @llvm.lifetime.start.p0(i64 8, ptr nonnull %4) #20
  store ptr null, ptr %4, align 8
  %41 = load ptr, ptr %25, align 8
  tail call void @g_free(ptr noundef %41)
  %42 = load i8, ptr %26, align 4, !range !6, !noundef !7
  %43 = trunc nuw i8 %42 to i1
  br i1 %43, label %44, label %47

44:                                               ; preds = %3
  %45 = getelementptr inbounds nuw i8, ptr %0, i64 64
  %46 = load ptr, ptr %45, align 8
  tail call void @gcry_cipher_close(ptr noundef %46)
  store i8 0, ptr %26, align 4
  br label %47

47:                                               ; preds = %44, %3
  %48 = load ptr, ptr %24, align 8
  %.not.i = icmp eq ptr %48, null
  br i1 %.not.i, label %51, label %49

49:                                               ; preds = %47
  %50 = call fastcc i32 @compute_ascii_key(ptr noundef nonnull %25, ptr noundef %48, ptr noundef nonnull %4)
  br label %52

51:                                               ; preds = %47
  store ptr null, ptr %25, align 8
  br label %52

52:                                               ; preds = %51, %49
  %.sink.i = phi i32 [ 0, %51 ], [ %50, %49 ]
  %53 = getelementptr inbounds nuw i8, ptr %0, i64 56
  store i32 %.sink.i, ptr %53, align 8
  %54 = load ptr, ptr %34, align 8
  tail call void @g_free(ptr noundef %54)
  %55 = load ptr, ptr %33, align 8
  %.not22.i = icmp eq ptr %55, null
  br i1 %.not22.i, label %58, label %56

56:                                               ; preds = %52
  %57 = call fastcc i32 @compute_ascii_key(ptr noundef nonnull %34, ptr noundef %55, ptr noundef nonnull %4)
  br label %uat_esp_sa_record_update_cb.exit

58:                                               ; preds = %52
  store ptr null, ptr %34, align 8
  br label %uat_esp_sa_record_update_cb.exit

uat_esp_sa_record_update_cb.exit:                 ; preds = %56, %58
  %.sink23.i = phi i32 [ 0, %58 ], [ %57, %56 ]
  %59 = getelementptr inbounds nuw i8, ptr %0, i64 96
  store i32 %.sink23.i, ptr %59, align 8
  %60 = load ptr, ptr %4, align 8
  %.not = icmp eq ptr %60, null
  br i1 %.not, label %62, label %61

61:                                               ; preds = %uat_esp_sa_record_update_cb.exit
  tail call void @g_free(ptr noundef nonnull %60)
  br label %62

62:                                               ; preds = %61, %uat_esp_sa_record_update_cb.exit
  call void @llvm.lifetime.end.p0(i64 8, ptr nonnull %4) #20
  ret ptr %0
}